target datalayout = "e-m:e-p270:32:32-p271:32:32-p272:64:64-i64:64-i128:128-f80:128-n8:16:32:64-S128"
target triple = "x86_64-pc-linux-gnu"

@.str.17 = private unnamed_addr constant [26 x i8] c"unable to unlink '%s': %s\00", align 1

; Function Attrs: nounwind uwtable
define dso_local i32 @unlink_or_msg(ptr noundef %0, ptr noundef %1) #0 {
  %3 = alloca i32, align 4
  %4 = alloca ptr, align 8
  %5 = alloca ptr, align 8
  %6 = alloca i32, align 4
  %7 = alloca i32, align 4
  store ptr %0, ptr %4, align 8, !tbaa !4
  store ptr %1, ptr %5, align 8, !tbaa !30
  call void @llvm.lifetime.start.p0(i64 4, ptr %6) #13
  %8 = load ptr, ptr %4, align 8, !tbaa !4
  %9 = call i32 @unlink(ptr noundef %8) #13
  store i32 %9, ptr %6, align 4, !tbaa !11
  %10 = load i32, ptr %6, align 4, !tbaa !11
  %11 = icmp ne i32 %10, 0
  br i1 %11, label %12, label %16

12:                                               ; preds = %2
  %13 = call ptr @__errno_location() #19
  %14 = load i32, ptr %13, align 4, !tbaa !11
  %15 = icmp eq i32 %14, 2
  br i1 %15, label %16, label %17

16:                                               ; preds = %12, %2
  store i32 0, ptr %3, align 4
  store i32 1, ptr %7, align 4
  br label %23

17:                                               ; preds = %12
  %18 = load ptr, ptr %5, align 8, !tbaa !30
  %19 = load ptr, ptr %4, align 8, !tbaa !4
  %20 = call ptr @__errno_location() #19
  %21 = load i32, ptr %20, align 4, !tbaa !11
  %22 = call ptr @strerror(i32 noundef %21) #13
  call void (ptr, ptr, ...) @strbuf_addf(ptr noundef %18, ptr noundef @.str.17, ptr noundef %19, ptr noundef %22)
  store i32 -1, ptr %3, align 4
  store i32 1, ptr %7, align 4
  br label %23

23:                                               ; preds = %17, %16
  call void @llvm.lifetime.end.p0(i64 4, ptr %6) #13
  %24 = load i32, ptr %3, align 4
  ret i32 %24
}