; Function Attrs: nounwind uwtable
define dso_local range(i32 -1, 1) i32 @unlink_or_msg(ptr noundef %0, ptr noundef %1) local_unnamed_addr #0 {
  %3 = tail call i32 @unlink(ptr noundef %0) #20
  %.not = icmp eq i32 %3, 0
  br i1 %.not, label %10, label %4

4:                                                ; preds = %2
  %5 = tail call ptr @__errno_location() #26
  %6 = load i32, ptr %5, align 4, !tbaa !9
  %7 = icmp eq i32 %6, 2
  br i1 %7, label %10, label %8

8:                                                ; preds = %4
  %9 = tail call ptr @strerror(i32 noundef %6) #20
  tail call void (ptr, ptr, ...) @strbuf_addf(ptr noundef %1, ptr noundef nonnull @.str.17, ptr noundef %0, ptr noundef %9) #20
  br label %10

10:                                               ; preds = %2, %4, %8
  %.0 = phi i32 [ -1, %8 ], [ 0, %4 ], [ 0, %2 ]
  ret i32 %.0
}